; Function Attrs: nounwind uwtable
define hidden range(i32 0, 2) i32 @ssl_log_rsa_client_key_exchange(ptr noundef %0, ptr noundef readonly captures(none) %1, i64 noundef %2, ptr noundef readonly captures(none) %3, i64 noundef %4) local_unnamed_addr #0 {
  %6 = alloca ptr, align 8
  %7 = alloca ptr, align 8
  %8 = alloca %struct.cbb_st, align 8
  %9 = alloca ptr, align 8
  %10 = alloca i64, align 8
  %11 = getelementptr inbounds nuw i8, ptr %0, i64 232
  %12 = load ptr, ptr %11, align 8, !tbaa !97
  %13 = getelementptr inbounds nuw i8, ptr %12, i64 632
  %14 = load ptr, ptr %13, align 8, !tbaa !234
  %15 = icmp eq ptr %14, null
  br i1 %15, label %74, label %16

16:                                               ; preds = %5
  %17 = icmp ult i64 %2, 8
  br i1 %17, label %18, label %19

18:                                               ; preds = %16
  tail call void @ERR_put_error(i32 noundef 16, i32 noundef 0, i32 noundef 68, ptr noundef nonnull @.str, i32 noundef 2231) #21
  br label %74

19:                                               ; preds = %16
  call void @llvm.lifetime.start.p0(i64 32, ptr nonnull %8) #21
  call void @llvm.lifetime.start.p0(i64 8, ptr nonnull %9) #21
  call void @llvm.lifetime.start.p0(i64 8, ptr nonnull %10) #21
  %20 = shl i64 %4, 1
  %21 = add i64 %20, 22
  %22 = call i32 @CBB_init(ptr noundef nonnull %8, i64 noundef %21) #21
  %.not = icmp eq i32 %22, 0
  br i1 %.not, label %66, label %23

23:                                               ; preds = %19
  %24 = call i32 @CBB_add_bytes(ptr noundef nonnull %8, ptr noundef nonnull @.str.2, i64 noundef 4) #21
  %.not8 = icmp eq i32 %24, 0
  br i1 %.not8, label %66, label %25

25:                                               ; preds = %23
  call void @llvm.lifetime.start.p0(i64 8, ptr nonnull %7) #21
  %26 = call i32 @CBB_add_space(ptr noundef nonnull %8, ptr noundef nonnull %7, i64 noundef 16) #21
  %.not.i = icmp eq i32 %26, 0
  br i1 %.not.i, label %cbb_add_hex.exit.thread, label %.lr.ph.i

cbb_add_hex.exit.thread:                          ; preds = %25
  call void @llvm.lifetime.end.p0(i64 8, ptr nonnull %7) #21
  br label %66

.lr.ph.i:                                         ; preds = %25, %.lr.ph.i
  %.010.i = phi i64 [ %42, %.lr.ph.i ], [ 0, %25 ]
  %27 = getelementptr inbounds nuw i8, ptr %1, i64 %.010.i
  %28 = load i8, ptr %27, align 1, !tbaa !157
  %29 = lshr i8 %28, 4
  %30 = zext nneg i8 %29 to i64
  %31 = getelementptr inbounds nuw [17 x i8], ptr @cbb_add_hex.hextable, i64 0, i64 %30
  %32 = load i8, ptr %31, align 1, !tbaa !157
  %33 = load ptr, ptr %7, align 8, !tbaa !186
  %34 = getelementptr inbounds nuw i8, ptr %33, i64 1
  store ptr %34, ptr %7, align 8, !tbaa !186
  store i8 %32, ptr %33, align 1, !tbaa !157
  %35 = load i8, ptr %27, align 1, !tbaa !157
  %36 = and i8 %35, 15
  %37 = zext nneg i8 %36 to i64
  %38 = getelementptr inbounds nuw [17 x i8], ptr @cbb_add_hex.hextable, i64 0, i64 %37
  %39 = load i8, ptr %38, align 1, !tbaa !157
  %40 = load ptr, ptr %7, align 8, !tbaa !186
  %41 = getelementptr inbounds nuw i8, ptr %40, i64 1
  store ptr %41, ptr %7, align 8, !tbaa !186
  store i8 %39, ptr %40, align 1, !tbaa !157
  %42 = add nuw nsw i64 %.010.i, 1
  %exitcond.not.i = icmp eq i64 %42, 8
  br i1 %exitcond.not.i, label %43, label %.lr.ph.i, !llvm.loop !235

43:                                               ; preds = %.lr.ph.i
  call void @llvm.lifetime.end.p0(i64 8, ptr nonnull %7) #21
  %44 = call i32 @CBB_add_bytes(ptr noundef nonnull %8, ptr noundef nonnull @.str.3, i64 noundef 1) #21
  %.not10 = icmp eq i32 %44, 0
  br i1 %.not10, label %66, label %45

45:                                               ; preds = %43
  call void @llvm.lifetime.start.p0(i64 8, ptr nonnull %6) #21
  %46 = call i32 @CBB_add_space(ptr noundef nonnull %8, ptr noundef nonnull %6, i64 noundef %20) #21
  %.not.i14 = icmp eq i32 %46, 0
  br i1 %.not.i14, label %cbb_add_hex.exit20, label %.preheader.i15

.preheader.i15:                                   ; preds = %45
  %.not11.i = icmp eq i64 %4, 0
  br i1 %.not11.i, label %.loopexit, label %.lr.ph.i16

.lr.ph.i16:                                       ; preds = %.preheader.i15, %.lr.ph.i16
  %.010.i17 = phi i64 [ %62, %.lr.ph.i16 ], [ 0, %.preheader.i15 ]
  %47 = getelementptr inbounds nuw i8, ptr %3, i64 %.010.i17
  %48 = load i8, ptr %47, align 1, !tbaa !157
  %49 = lshr i8 %48, 4
  %50 = zext nneg i8 %49 to i64
  %51 = getelementptr inbounds nuw [17 x i8], ptr @cbb_add_hex.hextable, i64 0, i64 %50
  %52 = load i8, ptr %51, align 1, !tbaa !157
  %53 = load ptr, ptr %6, align 8, !tbaa !186
  %54 = getelementptr inbounds nuw i8, ptr %53, i64 1
  store ptr %54, ptr %6, align 8, !tbaa !186
  store i8 %52, ptr %53, align 1, !tbaa !157
  %55 = load i8, ptr %47, align 1, !tbaa !157
  %56 = and i8 %55, 15
  %57 = zext nneg i8 %56 to i64
  %58 = getelementptr inbounds nuw [17 x i8], ptr @cbb_add_hex.hextable, i64 0, i64 %57
  %59 = load i8, ptr %58, align 1, !tbaa !157
  %60 = load ptr, ptr %6, align 8, !tbaa !186
  %61 = getelementptr inbounds nuw i8, ptr %60, i64 1
  store ptr %61, ptr %6, align 8, !tbaa !186
  store i8 %59, ptr %60, align 1, !tbaa !157
  %62 = add nuw i64 %.010.i17, 1
  %exitcond.not.i18 = icmp eq i64 %62, %4
  br i1 %exitcond.not.i18, label %.loopexit, label %.lr.ph.i16, !llvm.loop !235

cbb_add_hex.exit20:                               ; preds = %45
  call void @llvm.lifetime.end.p0(i64 8, ptr nonnull %6) #21
  br label %66

.loopexit:                                        ; preds = %.lr.ph.i16, %.preheader.i15
  call void @llvm.lifetime.end.p0(i64 8, ptr nonnull %6) #21
  %63 = call i32 @CBB_add_u8(ptr noundef nonnull %8, i8 noundef zeroext 0) #21
  %.not12 = icmp eq i32 %63, 0
  br i1 %.not12, label %66, label %64

64:                                               ; preds = %.loopexit
  %65 = call i32 @CBB_finish(ptr noundef nonnull %8, ptr noundef nonnull %9, ptr noundef nonnull %10) #21
  %.not13 = icmp eq i32 %65, 0
  br i1 %.not13, label %66, label %67

66:                                               ; preds = %cbb_add_hex.exit20, %cbb_add_hex.exit.thread, %64, %.loopexit, %43, %23, %19
  call void @CBB_cleanup(ptr noundef nonnull %8) #21
  br label %73

67:                                               ; preds = %64
  %68 = load ptr, ptr %11, align 8, !tbaa !97
  %69 = getelementptr inbounds nuw i8, ptr %68, i64 632
  %70 = load ptr, ptr %69, align 8, !tbaa !234
  %71 = load ptr, ptr %9, align 8, !tbaa !186
  call void %70(ptr noundef %0, ptr noundef %71) #21
  %72 = load ptr, ptr %9, align 8, !tbaa !186
  call void @free(ptr noundef %72) #21
  br label %73

73:                                               ; preds = %67, %66
  %.1 = phi i32 [ 1, %67 ], [ 0, %66 ]
  call void @llvm.lifetime.end.p0(i64 8, ptr nonnull %10) #21
  call void @llvm.lifetime.end.p0(i64 8, ptr nonnull %9) #21
  call void @llvm.lifetime.end.p0(i64 32, ptr nonnull %8) #21
  br label %74

74:                                               ; preds = %5, %73, %18
  %.0 = phi i32 [ 0, %18 ], [ %.1, %73 ], [ 1, %5 ]
  ret i32 %.0
}